target datalayout = "e-m:e-p270:32:32-p271:32:32-p272:64:64-i64:64-i128:128-f80:128-n8:16:32:64-S128"
target triple = "x86_64-pc-linux-gnu"

%class.ObjectMonitor = type { %class.markWord, %class.WeakHandle, [48 x i8], ptr, i64, [48 x i8], ptr, i64, ptr, ptr, ptr, ptr, i32, i32, ptr, i32, i32 }
%class.markWord = type { i64 }
%class.WeakHandle = type { ptr }
%class.ObjectWaiter = type <{ ptr, ptr, ptr, i64, ptr, i32, i32, i8, [7 x i8] }>
%"struct.Atomic::CmpxchgImpl.59" = type { i8 }
%"struct.Atomic::PlatformCmpxchg" = type { i8 }

; Function Attrs: mustprogress nounwind uwtable
define linkonce_odr hidden noundef ptr @_ZNK6Atomic15PlatformCmpxchgILm8EEclIP12ObjectWaiterEET_PVS5_S5_S5_19atomic_memory_order(ptr noundef nonnull align 1 dereferenceable(1) %0, ptr noundef %1, ptr noundef %2, ptr noundef %3, i32 noundef %4) #1 comdat align 2 {
  %6 = alloca ptr, align 8
  %7 = alloca ptr, align 8
  %8 = alloca ptr, align 8
  %9 = alloca ptr, align 8
  %10 = alloca i32, align 4
  store ptr %0, ptr %6, align 8
  store ptr %1, ptr %7, align 8
  store ptr %2, ptr %8, align 8
  store ptr %3, ptr %9, align 8
  store i32 %4, ptr %10, align 4
  %11 = load ptr, ptr %9, align 8
  %12 = load ptr, ptr %8, align 8
  %13 = load ptr, ptr %7, align 8
  %14 = call ptr asm sideeffect "lock cmpxchgq $1,($3)", "={ax},r,{ax},r,~{cc},~{memory},~{dirflag},~{fpsr},~{flags}"(ptr %11, ptr %12, ptr %13) #8, !srcloc !31
  store ptr %14, ptr %9, align 8
  %15 = load ptr, ptr %9, align 8
  ret ptr %15
}

; Function Attrs: mustprogress nounwind uwtable
define linkonce_odr hidden noundef ptr @_ZNK6Atomic11CmpxchgImplIP12ObjectWaiterS2_S2_vEclEPVS2_S2_S2_19atomic_memory_order(ptr noundef nonnull align 1 dereferenceable(1) %0, ptr noundef %1, ptr noundef %2, ptr noundef %3, i32 noundef %4) #1 comdat align 2 {
  %6 = alloca ptr, align 8
  %7 = alloca ptr, align 8
  %8 = alloca ptr, align 8
  %9 = alloca ptr, align 8
  %10 = alloca i32, align 4
  %11 = alloca ptr, align 8
  %12 = alloca ptr, align 8
  %13 = alloca %"struct.Atomic::PlatformCmpxchg", align 1
  store ptr %0, ptr %6, align 8
  store ptr %1, ptr %7, align 8
  store ptr %2, ptr %8, align 8
  store ptr %3, ptr %9, align 8
  store i32 %4, ptr %10, align 4
  %14 = load ptr, ptr %9, align 8
  store ptr %14, ptr %11, align 8
  %15 = load ptr, ptr %8, align 8
  store ptr %15, ptr %12, align 8
  %16 = load ptr, ptr %7, align 8
  %17 = load ptr, ptr %12, align 8
  %18 = load ptr, ptr %11, align 8
  %19 = load i32, ptr %10, align 4
  %20 = call noundef ptr @_ZNK6Atomic15PlatformCmpxchgILm8EEclIP12ObjectWaiterEET_PVS5_S5_S5_19atomic_memory_order(ptr noundef nonnull align 1 dereferenceable(1) %13, ptr noundef %16, ptr noundef %17, ptr noundef %18, i32 noundef %19)
  ret ptr %20
}

; Function Attrs: mustprogress nounwind uwtable
define linkonce_odr hidden noundef ptr @_ZN6Atomic7cmpxchgIP12ObjectWaiterS2_S2_EET_PVS3_T0_T1_19atomic_memory_order(ptr noundef %0, ptr noundef %1, ptr noundef %2, i32 noundef %3) #1 comdat align 2 {
  %5 = alloca ptr, align 8
  %6 = alloca ptr, align 8
  %7 = alloca ptr, align 8
  %8 = alloca i32, align 4
  %9 = alloca %"struct.Atomic::CmpxchgImpl.59", align 1
  store ptr %0, ptr %5, align 8
  store ptr %1, ptr %6, align 8
  store ptr %2, ptr %7, align 8
  store i32 %3, ptr %8, align 4
  %10 = load ptr, ptr %5, align 8
  %11 = load ptr, ptr %6, align 8
  %12 = load ptr, ptr %7, align 8
  %13 = load i32, ptr %8, align 4
  %14 = call noundef ptr @_ZNK6Atomic11CmpxchgImplIP12ObjectWaiterS2_S2_vEclEPVS2_S2_S2_19atomic_memory_order(ptr noundef nonnull align 1 dereferenceable(1) %9, ptr noundef %10, ptr noundef %11, ptr noundef %12, i32 noundef %13)
  ret ptr %14
}

; Function Attrs: mustprogress nounwind uwtable
define hidden void @_ZN13ObjectMonitor18UnlinkAfterAcquireEP10JavaThreadP12ObjectWaiter(ptr noundef nonnull align 8 dereferenceable(200) %0, ptr noundef %1, ptr noundef %2) #1 align 2 {
  %4 = alloca ptr, align 8
  %5 = alloca ptr, align 8
  %6 = alloca ptr, align 8
  %7 = alloca ptr, align 8
  %8 = alloca ptr, align 8
  %9 = alloca ptr, align 8
  %10 = alloca ptr, align 8
  %11 = alloca ptr, align 8
  store ptr %0, ptr %4, align 8
  store ptr %1, ptr %5, align 8
  store ptr %2, ptr %6, align 8
  %12 = load ptr, ptr %4, align 8
  %13 = load ptr, ptr %6, align 8
  %14 = getelementptr inbounds %class.ObjectWaiter, ptr %13, i32 0, i32 6
  %15 = load volatile i32, ptr %14, align 4
  %16 = icmp eq i32 %15, 4
  br i1 %16, label %17, label %46

17:                                               ; preds = %3
  %18 = load ptr, ptr %6, align 8
  %19 = getelementptr inbounds %class.ObjectWaiter, ptr %18, i32 0, i32 0
  %20 = load volatile ptr, ptr %19, align 8
  store ptr %20, ptr %7, align 8
  %21 = load ptr, ptr %6, align 8
  %22 = getelementptr inbounds %class.ObjectWaiter, ptr %21, i32 0, i32 1
  %23 = load volatile ptr, ptr %22, align 8
  store ptr %23, ptr %8, align 8
  %24 = load ptr, ptr %7, align 8
  %25 = icmp ne ptr %24, null
  br i1 %25, label %26, label %30

26:                                               ; preds = %17
  %27 = load ptr, ptr %8, align 8
  %28 = load ptr, ptr %7, align 8
  %29 = getelementptr inbounds %class.ObjectWaiter, ptr %28, i32 0, i32 1
  store volatile ptr %27, ptr %29, align 8
  br label %30

30:                                               ; preds = %26, %17
  %31 = load ptr, ptr %8, align 8
  %32 = icmp ne ptr %31, null
  br i1 %32, label %33, label %37

33:                                               ; preds = %30
  %34 = load ptr, ptr %7, align 8
  %35 = load ptr, ptr %8, align 8
  %36 = getelementptr inbounds %class.ObjectWaiter, ptr %35, i32 0, i32 0
  store volatile ptr %34, ptr %36, align 8
  br label %37

37:                                               ; preds = %33, %30
  %38 = load ptr, ptr %6, align 8
  %39 = getelementptr inbounds %class.ObjectMonitor, ptr %12, i32 0, i32 8
  %40 = load volatile ptr, ptr %39, align 8
  %41 = icmp eq ptr %38, %40
  br i1 %41, label %42, label %45

42:                                               ; preds = %37
  %43 = load ptr, ptr %7, align 8
  %44 = getelementptr inbounds %class.ObjectMonitor, ptr %12, i32 0, i32 8
  store volatile ptr %43, ptr %44, align 8
  br label %45

45:                                               ; preds = %42, %37
  br label %92

46:                                               ; preds = %3
  %47 = getelementptr inbounds %class.ObjectMonitor, ptr %12, i32 0, i32 9
  %48 = load volatile ptr, ptr %47, align 8
  store ptr %48, ptr %9, align 8
  %49 = load ptr, ptr %9, align 8
  %50 = load ptr, ptr %6, align 8
  %51 = icmp ne ptr %49, %50
  br i1 %51, label %61, label %52

52:                                               ; preds = %46
  %53 = getelementptr inbounds %class.ObjectMonitor, ptr %12, i32 0, i32 9
  %54 = load ptr, ptr %9, align 8
  %55 = load ptr, ptr %6, align 8
  %56 = getelementptr inbounds %class.ObjectWaiter, ptr %55, i32 0, i32 0
  %57 = load volatile ptr, ptr %56, align 8
  %58 = call noundef ptr @_ZN6Atomic7cmpxchgIP12ObjectWaiterS2_S2_EET_PVS3_T0_T1_19atomic_memory_order(ptr noundef %53, ptr noundef %54, ptr noundef %57, i32 noundef 8)
  %59 = load ptr, ptr %9, align 8
  %60 = icmp ne ptr %58, %59
  br i1 %60, label %61, label %91

61:                                               ; preds = %52, %46
  %62 = load ptr, ptr %9, align 8
  %63 = load ptr, ptr %6, align 8
  %64 = icmp eq ptr %62, %63
  br i1 %64, label %65, label %68

65:                                               ; preds = %61
  %66 = getelementptr inbounds %class.ObjectMonitor, ptr %12, i32 0, i32 9
  %67 = load volatile ptr, ptr %66, align 8
  store ptr %67, ptr %9, align 8
  br label %68

68:                                               ; preds = %65, %61
  store ptr null, ptr %11, align 8
  %69 = load ptr, ptr %9, align 8
  store ptr %69, ptr %10, align 8
  br label %70

70:                                               ; preds = %81, %68
  %71 = load ptr, ptr %10, align 8
  %72 = icmp ne ptr %71, null
  br i1 %72, label %73, label %77

73:                                               ; preds = %70
  %74 = load ptr, ptr %10, align 8
  %75 = load ptr, ptr %6, align 8
  %76 = icmp ne ptr %74, %75
  br label %77

77:                                               ; preds = %73, %70
  %78 = phi i1 [ false, %70 ], [ %76, %73 ]
  br i1 %78, label %79, label %85

79:                                               ; preds = %77
  %80 = load ptr, ptr %10, align 8
  store ptr %80, ptr %11, align 8
  br label %81

81:                                               ; preds = %79
  %82 = load ptr, ptr %10, align 8
  %83 = getelementptr inbounds %class.ObjectWaiter, ptr %82, i32 0, i32 0
  %84 = load volatile ptr, ptr %83, align 8
  store ptr %84, ptr %10, align 8
  br label %70, !llvm.loop !19

85:                                               ; preds = %77
  %86 = load ptr, ptr %10, align 8
  %87 = getelementptr inbounds %class.ObjectWaiter, ptr %86, i32 0, i32 0
  %88 = load volatile ptr, ptr %87, align 8
  %89 = load ptr, ptr %11, align 8
  %90 = getelementptr inbounds %class.ObjectWaiter, ptr %89, i32 0, i32 0
  store volatile ptr %88, ptr %90, align 8
  br label %91

91:                                               ; preds = %85, %52
  br label %92

92:                                               ; preds = %91, %45
  ret void
}