; Function Attrs: mustprogress nounwind uwtable
define hidden void @_ZN13ObjectMonitor18UnlinkAfterAcquireEP10JavaThreadP12ObjectWaiter(ptr noundef nonnull align 8 dereferenceable(200) %0, ptr nocapture noundef readnone %1, ptr noundef %2) local_unnamed_addr #0 align 2 {
  %4 = getelementptr inbounds i8, ptr %2, i64 44
  %5 = load volatile i32, ptr %4, align 4
  %6 = icmp eq i32 %5, 4
  br i1 %6, label %7, label %20

7:                                                ; preds = %3
  %8 = load volatile ptr, ptr %2, align 8
  %9 = getelementptr inbounds i8, ptr %2, i64 8
  %10 = load volatile ptr, ptr %9, align 8
  %.not34 = icmp eq ptr %8, null
  br i1 %.not34, label %13, label %11

11:                                               ; preds = %7
  %12 = getelementptr inbounds i8, ptr %8, i64 8
  store volatile ptr %10, ptr %12, align 8
  br label %13

13:                                               ; preds = %11, %7
  %.not35 = icmp eq ptr %10, null
  br i1 %.not35, label %15, label %14

14:                                               ; preds = %13
  store volatile ptr %8, ptr %10, align 8
  br label %15

15:                                               ; preds = %14, %13
  %16 = getelementptr inbounds i8, ptr %0, i64 144
  %17 = load volatile ptr, ptr %16, align 8
  %18 = icmp eq ptr %17, %2
  br i1 %18, label %19, label %37

19:                                               ; preds = %15
  store volatile ptr %8, ptr %16, align 8
  br label %37

20:                                               ; preds = %3
  %21 = getelementptr inbounds i8, ptr %0, i64 152
  %22 = load volatile ptr, ptr %21, align 8
  %.not = icmp eq ptr %22, %2
  br i1 %.not, label %23, label %28

23:                                               ; preds = %20
  %24 = load volatile ptr, ptr %2, align 8
  %25 = tail call noundef ptr asm sideeffect "lock cmpxchgq $1,($3)", "={ax},r,{ax},r,~{cc},~{memory},~{dirflag},~{fpsr},~{flags}"(ptr %24, ptr %22, ptr nonnull %21) #12, !srcloc !8
  %.not33 = icmp eq ptr %25, %2
  br i1 %.not33, label %37, label %26

26:                                               ; preds = %23
  %27 = load volatile ptr, ptr %21, align 8
  br label %28

28:                                               ; preds = %20, %26
  %.028 = phi ptr [ %27, %26 ], [ %22, %20 ]
  %29 = icmp ne ptr %.028, null
  %30 = icmp ne ptr %.028, %2
  %31 = and i1 %29, %30
  br i1 %31, label %.lr.ph, label %._crit_edge

.lr.ph:                                           ; preds = %28, %.lr.ph
  %.02736 = phi ptr [ %32, %.lr.ph ], [ %.028, %28 ]
  %32 = load volatile ptr, ptr %.02736, align 8
  %33 = icmp ne ptr %32, null
  %34 = icmp ne ptr %32, %2
  %35 = and i1 %33, %34
  br i1 %35, label %.lr.ph, label %._crit_edge, !llvm.loop !23

._crit_edge:                                      ; preds = %.lr.ph, %28
  %.027.lcssa = phi ptr [ %.028, %28 ], [ %32, %.lr.ph ]
  %.0.lcssa = phi ptr [ null, %28 ], [ %.02736, %.lr.ph ]
  %36 = load volatile ptr, ptr %.027.lcssa, align 8
  store volatile ptr %36, ptr %.0.lcssa, align 8
  br label %37

37:                                               ; preds = %23, %._crit_edge, %15, %19
  ret void
}